target datalayout = "e-m:e-p270:32:32-p271:32:32-p272:64:64-i64:64-i128:128-f80:128-n8:16:32:64-S128"
target triple = "x86_64-pc-linux-gnu"

%struct.expert_field = type { i32, i32 }
%struct.ws_rthdr = type { %struct.ws_ip6_rthdr, ptr, ptr, ptr }
%struct.ws_ip6_rthdr = type { i8, i8, i8, i8 }
%struct._proto_node = type { ptr, ptr, ptr, ptr, ptr, ptr, ptr }
%struct.field_info = type { ptr, i32, i32, i32, i32, i32, i32, ptr, ptr, ptr, i32, i32 }

@hf_ipv6_routing_crh16_current_sid = internal global i32 0, align 4
@hf_ipv6_routing_crh32_current_sid = internal global i32 0, align 4
@hf_ipv6_routing_crh16_segment_id = internal global i32 0, align 4
@hf_ipv6_routing_crh32_segment_id = internal global i32 0, align 4
@ei_ipv6_routing_invalid_length = internal global %struct.expert_field zeroinitializer, align 4
@.str.887 = private unnamed_addr constant [55 x i8] c"%s:%u: failed assertion \22DISSECTOR_ASSERT_NOT_REACHED\22\00", align 1
@.str.888 = private unnamed_addr constant [30 x i8] c"epan/dissectors/packet-ipv6.c\00", align 1
@.str.946 = private unnamed_addr constant [78 x i8] c"IPv6 Compact Routing Header minimum length must not exceed header length (%u)\00", align 1
@.str.947 = private unnamed_addr constant [20 x i8] c"Segment Identifiers\00", align 1
@.str.948 = private unnamed_addr constant [13 x i8] c"SID[%d] = %d\00", align 1

; Function Attrs: inlinehint nounwind null_pointer_is_valid sspstrong uwtable
define internal void @proto_item_set_generated(ptr noundef %0) #7 {
  %2 = alloca ptr, align 8
  store ptr %0, ptr %2, align 8
  %3 = load ptr, ptr %2, align 8
  %4 = icmp ne ptr %3, null
  br i1 %4, label %5, label %24

5:                                                ; preds = %1
  br label %6

6:                                                ; preds = %5
  %7 = load ptr, ptr %2, align 8
  %8 = getelementptr inbounds nuw %struct._proto_node, ptr %7, i32 0, i32 5
  %9 = load ptr, ptr %8, align 8
  %10 = icmp ne ptr %9, null
  br i1 %10, label %11, label %22

11:                                               ; preds = %6
  %12 = load ptr, ptr %2, align 8
  %13 = getelementptr inbounds nuw %struct._proto_node, ptr %12, i32 0, i32 5
  %14 = load ptr, ptr %13, align 8
  %15 = getelementptr inbounds nuw %struct.field_info, ptr %14, i32 0, i32 6
  %16 = load i32, ptr %15, align 4
  %17 = or i32 %16, 2
  %18 = load ptr, ptr %2, align 8
  %19 = getelementptr inbounds nuw %struct._proto_node, ptr %18, i32 0, i32 5
  %20 = load ptr, ptr %19, align 8
  %21 = getelementptr inbounds nuw %struct.field_info, ptr %20, i32 0, i32 6
  store i32 %17, ptr %21, align 4
  br label %22

22:                                               ; preds = %11, %6
  br label %23

23:                                               ; preds = %22
  br label %24

24:                                               ; preds = %23, %1
  ret void
}

; Function Attrs: null_pointer_is_valid sspstrong uwtable
define internal i32 @dissect_routing6_crh(ptr noundef %0, ptr noundef %1, ptr noundef %2, ptr noundef %3) #0 {
  %5 = alloca ptr, align 8
  %6 = alloca ptr, align 8
  %7 = alloca ptr, align 8
  %8 = alloca ptr, align 8
  %9 = alloca i32, align 4
  %10 = alloca i32, align 4
  %11 = alloca i32, align 4
  %12 = alloca i32, align 4
  %13 = alloca i32, align 4
  %14 = alloca i32, align 4
  %15 = alloca i32, align 4
  %16 = alloca ptr, align 8
  %17 = alloca i8, align 1
  %18 = alloca i8, align 1
  %19 = alloca ptr, align 8
  %20 = alloca ptr, align 8
  %21 = alloca ptr, align 8
  %22 = alloca i32, align 4
  store ptr %0, ptr %5, align 8
  store ptr %1, ptr %6, align 8
  store ptr %2, ptr %7, align 8
  store ptr %3, ptr %8, align 8
  call void @llvm.lifetime.start.p0(i64 4, ptr %9) #15
  call void @llvm.lifetime.start.p0(i64 4, ptr %10) #15
  call void @llvm.lifetime.start.p0(i64 4, ptr %11) #15
  call void @llvm.lifetime.start.p0(i64 4, ptr %12) #15
  call void @llvm.lifetime.start.p0(i64 4, ptr %13) #15
  call void @llvm.lifetime.start.p0(i64 4, ptr %14) #15
  call void @llvm.lifetime.start.p0(i64 4, ptr %15) #15
  call void @llvm.lifetime.start.p0(i64 8, ptr %16) #15
  %23 = load ptr, ptr %8, align 8
  store ptr %23, ptr %16, align 8
  call void @llvm.lifetime.start.p0(i64 1, ptr %17) #15
  %24 = load ptr, ptr %16, align 8
  %25 = getelementptr inbounds nuw %struct.ws_rthdr, ptr %24, i32 0, i32 0
  %26 = getelementptr inbounds nuw %struct.ws_ip6_rthdr, ptr %25, i32 0, i32 2
  %27 = load i8, ptr %26, align 2
  %28 = zext i8 %27 to i32
  %29 = icmp eq i32 %28, 5
  %30 = zext i1 %29 to i8
  store i8 %30, ptr %17, align 1
  call void @llvm.lifetime.start.p0(i64 1, ptr %18) #15
  %31 = load ptr, ptr %16, align 8
  %32 = getelementptr inbounds nuw %struct.ws_rthdr, ptr %31, i32 0, i32 0
  %33 = getelementptr inbounds nuw %struct.ws_ip6_rthdr, ptr %32, i32 0, i32 3
  %34 = load i8, ptr %33, align 1
  store i8 %34, ptr %18, align 1
  store i32 -1, ptr %10, align 4
  %35 = load ptr, ptr %16, align 8
  %36 = getelementptr inbounds nuw %struct.ws_rthdr, ptr %35, i32 0, i32 0
  %37 = getelementptr inbounds nuw %struct.ws_ip6_rthdr, ptr %36, i32 0, i32 2
  %38 = load i8, ptr %37, align 2
  %39 = zext i8 %38 to i32
  switch i32 %39, label %72 [
    i32 5, label %40
    i32 6, label %56
  ]

40:                                               ; preds = %4
  store i32 2, ptr %13, align 4
  store i32 4, ptr %15, align 4
  %41 = load ptr, ptr %16, align 8
  %42 = getelementptr inbounds nuw %struct.ws_rthdr, ptr %41, i32 0, i32 0
  %43 = getelementptr inbounds nuw %struct.ws_ip6_rthdr, ptr %42, i32 0, i32 1
  %44 = load i8, ptr %43, align 1
  %45 = zext i8 %44 to i32
  %46 = mul i32 %45, 4
  %47 = add i32 %46, 2
  store i32 %47, ptr %12, align 4
  %48 = load i8, ptr %18, align 1
  %49 = zext i8 %48 to i32
  %50 = icmp sle i32 %49, 2
  br i1 %50, label %51, label %52

51:                                               ; preds = %40
  store i32 0, ptr %10, align 4
  br label %52

52:                                               ; preds = %51, %40
  %53 = load i8, ptr %18, align 1
  %54 = zext i8 %53 to i32
  %55 = sub i32 %54, 2
  store i32 %55, ptr %14, align 4
  br label %73

56:                                               ; preds = %4
  store i32 4, ptr %13, align 4
  store i32 2, ptr %15, align 4
  %57 = load ptr, ptr %16, align 8
  %58 = getelementptr inbounds nuw %struct.ws_rthdr, ptr %57, i32 0, i32 0
  %59 = getelementptr inbounds nuw %struct.ws_ip6_rthdr, ptr %58, i32 0, i32 1
  %60 = load i8, ptr %59, align 1
  %61 = zext i8 %60 to i32
  %62 = mul i32 %61, 2
  %63 = add i32 %62, 1
  store i32 %63, ptr %12, align 4
  %64 = load i8, ptr %18, align 1
  %65 = zext i8 %64 to i32
  %66 = icmp sle i32 %65, 1
  br i1 %66, label %67, label %68

67:                                               ; preds = %56
  store i32 0, ptr %10, align 4
  br label %68

68:                                               ; preds = %67, %56
  %69 = load i8, ptr %18, align 1
  %70 = zext i8 %69 to i32
  %71 = sub i32 %70, 1
  store i32 %71, ptr %14, align 4
  br label %73

72:                                               ; preds = %4
  call void (ptr, ...) @proto_report_dissector_bug(ptr noundef @.str.887, ptr noundef @.str.888, i32 noundef 1524) #19
  unreachable

73:                                               ; preds = %68, %52
  %74 = load i32, ptr %10, align 4
  %75 = icmp ne i32 %74, 0
  br i1 %75, label %76, label %88

76:                                               ; preds = %73
  %77 = load i32, ptr %14, align 4
  %78 = load i32, ptr %15, align 4
  %79 = udiv i32 %77, %78
  store i32 %79, ptr %10, align 4
  %80 = load i32, ptr %14, align 4
  %81 = load i32, ptr %15, align 4
  %82 = urem i32 %80, %81
  %83 = icmp ne i32 %82, 0
  br i1 %83, label %84, label %87

84:                                               ; preds = %76
  %85 = load i32, ptr %10, align 4
  %86 = add i32 %85, 1
  store i32 %86, ptr %10, align 4
  br label %87

87:                                               ; preds = %84, %76
  br label %88

88:                                               ; preds = %87, %73
  %89 = load i32, ptr %10, align 4
  %90 = load ptr, ptr %16, align 8
  %91 = getelementptr inbounds nuw %struct.ws_rthdr, ptr %90, i32 0, i32 0
  %92 = getelementptr inbounds nuw %struct.ws_ip6_rthdr, ptr %91, i32 0, i32 1
  %93 = load i8, ptr %92, align 1
  %94 = zext i8 %93 to i32
  %95 = icmp sgt i32 %89, %94
  br i1 %95, label %96, label %107

96:                                               ; preds = %88
  %97 = load ptr, ptr %6, align 8
  %98 = load ptr, ptr %16, align 8
  %99 = getelementptr inbounds nuw %struct.ws_rthdr, ptr %98, i32 0, i32 1
  %100 = load ptr, ptr %99, align 8
  %101 = load ptr, ptr %16, align 8
  %102 = getelementptr inbounds nuw %struct.ws_rthdr, ptr %101, i32 0, i32 0
  %103 = getelementptr inbounds nuw %struct.ws_ip6_rthdr, ptr %102, i32 0, i32 1
  %104 = load i8, ptr %103, align 1
  %105 = zext i8 %104 to i32
  %106 = call ptr (ptr, ptr, ptr, ptr, ...) @expert_add_info_format(ptr noundef %97, ptr noundef %100, ptr noundef @ei_ipv6_routing_invalid_length, ptr noundef @.str.946, i32 noundef %105)
  br label %107

107:                                              ; preds = %96, %88
  store i32 0, ptr %9, align 4
  %108 = load i8, ptr %17, align 1, !range !6, !noundef !7
  %109 = trunc i8 %108 to i1
  br i1 %109, label %110, label %123

110:                                              ; preds = %107
  call void @llvm.lifetime.start.p0(i64 8, ptr %19) #15
  %111 = load ptr, ptr %7, align 8
  %112 = load i32, ptr @hf_ipv6_routing_crh16_current_sid, align 4
  %113 = load ptr, ptr %5, align 8
  %114 = load i32, ptr %9, align 4
  %115 = load i32, ptr %13, align 4
  %116 = load i8, ptr %18, align 1
  %117 = zext i8 %116 to i32
  %118 = mul i32 %115, %117
  %119 = add i32 %114, %118
  %120 = load i32, ptr %13, align 4
  %121 = call ptr @proto_tree_add_item(ptr noundef %111, i32 noundef %112, ptr noundef %113, i32 noundef %119, i32 noundef %120, i32 noundef 0)
  store ptr %121, ptr %19, align 8
  %122 = load ptr, ptr %19, align 8
  call void @proto_item_set_generated(ptr noundef %122)
  call void @llvm.lifetime.end.p0(i64 8, ptr %19) #15
  br label %136

123:                                              ; preds = %107
  call void @llvm.lifetime.start.p0(i64 8, ptr %20) #15
  %124 = load ptr, ptr %7, align 8
  %125 = load i32, ptr @hf_ipv6_routing_crh32_current_sid, align 4
  %126 = load ptr, ptr %5, align 8
  %127 = load i32, ptr %9, align 4
  %128 = load i32, ptr %13, align 4
  %129 = load i8, ptr %18, align 1
  %130 = zext i8 %129 to i32
  %131 = mul i32 %128, %130
  %132 = add i32 %127, %131
  %133 = load i32, ptr %13, align 4
  %134 = call ptr @proto_tree_add_item(ptr noundef %124, i32 noundef %125, ptr noundef %126, i32 noundef %132, i32 noundef %133, i32 noundef 0)
  store ptr %134, ptr %20, align 8
  %135 = load ptr, ptr %20, align 8
  call void @proto_item_set_generated(ptr noundef %135)
  call void @llvm.lifetime.end.p0(i64 8, ptr %20) #15
  br label %136

136:                                              ; preds = %123, %110
  %137 = load i8, ptr %17, align 1, !range !6, !noundef !7
  %138 = trunc i8 %137 to i1
  br i1 %138, label %139, label %144

139:                                              ; preds = %136
  %140 = load ptr, ptr %5, align 8
  %141 = load i32, ptr %9, align 4
  %142 = call zeroext i16 @tvb_get_uint16(ptr noundef %140, i32 noundef %141, i32 noundef 0)
  %143 = zext i16 %142 to i32
  br label %148

144:                                              ; preds = %136
  %145 = load ptr, ptr %5, align 8
  %146 = load i32, ptr %9, align 4
  %147 = call i32 @tvb_get_uint32(ptr noundef %145, i32 noundef %146, i32 noundef 0)
  br label %148

148:                                              ; preds = %144, %139
  %149 = phi i32 [ %143, %139 ], [ %147, %144 ]
  store i32 %149, ptr %11, align 4
  call void @llvm.lifetime.start.p0(i64 8, ptr %21) #15
  %150 = load ptr, ptr %7, align 8
  %151 = load ptr, ptr %5, align 8
  %152 = call ptr @proto_tree_add_subtree(ptr noundef %150, ptr noundef %151, i32 noundef 0, i32 noundef -1, i32 noundef 0, ptr noundef null, ptr noundef @.str.947)
  store ptr %152, ptr %21, align 8
  call void @llvm.lifetime.start.p0(i64 4, ptr %22) #15
  store i32 0, ptr %22, align 4
  br label %153

153:                                              ; preds = %203, %148
  %154 = load i32, ptr %22, align 4
  %155 = load i32, ptr %12, align 4
  %156 = icmp ult i32 %154, %155
  br i1 %156, label %157, label %160

157:                                              ; preds = %153
  %158 = load i32, ptr %11, align 4
  %159 = icmp ne i32 %158, 0
  br label %160

160:                                              ; preds = %157, %153
  %161 = phi i1 [ false, %153 ], [ %159, %157 ]
  br i1 %161, label %163, label %162

162:                                              ; preds = %160
  call void @llvm.lifetime.end.p0(i64 4, ptr %22) #15
  br label %206

163:                                              ; preds = %160
  %164 = load i8, ptr %17, align 1, !range !6, !noundef !7
  %165 = trunc i8 %164 to i1
  br i1 %165, label %166, label %176

166:                                              ; preds = %163
  %167 = load ptr, ptr %21, align 8
  %168 = load i32, ptr @hf_ipv6_routing_crh16_segment_id, align 4
  %169 = load ptr, ptr %5, align 8
  %170 = load i32, ptr %9, align 4
  %171 = load i32, ptr %13, align 4
  %172 = load i32, ptr %11, align 4
  %173 = load i32, ptr %22, align 4
  %174 = load i32, ptr %11, align 4
  %175 = call ptr (ptr, i32, ptr, i32, i32, i32, ptr, ...) @proto_tree_add_uint_format(ptr noundef %167, i32 noundef %168, ptr noundef %169, i32 noundef %170, i32 noundef %171, i32 noundef %172, ptr noundef @.str.948, i32 noundef %173, i32 noundef %174)
  br label %186

176:                                              ; preds = %163
  %177 = load ptr, ptr %21, align 8
  %178 = load i32, ptr @hf_ipv6_routing_crh32_segment_id, align 4
  %179 = load ptr, ptr %5, align 8
  %180 = load i32, ptr %9, align 4
  %181 = load i32, ptr %13, align 4
  %182 = load i32, ptr %11, align 4
  %183 = load i32, ptr %22, align 4
  %184 = load i32, ptr %11, align 4
  %185 = call ptr (ptr, i32, ptr, i32, i32, i32, ptr, ...) @proto_tree_add_uint_format(ptr noundef %177, i32 noundef %178, ptr noundef %179, i32 noundef %180, i32 noundef %181, i32 noundef %182, ptr noundef @.str.948, i32 noundef %183, i32 noundef %184)
  br label %186

186:                                              ; preds = %176, %166
  %187 = load i32, ptr %13, align 4
  %188 = load i32, ptr %9, align 4
  %189 = add i32 %188, %187
  store i32 %189, ptr %9, align 4
  %190 = load i8, ptr %17, align 1, !range !6, !noundef !7
  %191 = trunc i8 %190 to i1
  br i1 %191, label %192, label %197

192:                                              ; preds = %186
  %193 = load ptr, ptr %5, align 8
  %194 = load i32, ptr %9, align 4
  %195 = call zeroext i16 @tvb_get_uint16(ptr noundef %193, i32 noundef %194, i32 noundef 0)
  %196 = zext i16 %195 to i32
  br label %201

197:                                              ; preds = %186
  %198 = load ptr, ptr %5, align 8
  %199 = load i32, ptr %9, align 4
  %200 = call i32 @tvb_get_uint32(ptr noundef %198, i32 noundef %199, i32 noundef 0)
  br label %201

201:                                              ; preds = %197, %192
  %202 = phi i32 [ %196, %192 ], [ %200, %197 ]
  store i32 %202, ptr %11, align 4
  br label %203

203:                                              ; preds = %201
  %204 = load i32, ptr %22, align 4
  %205 = add i32 %204, 1
  store i32 %205, ptr %22, align 4
  br label %153, !llvm.loop !17

206:                                              ; preds = %162
  %207 = load ptr, ptr %5, align 8
  %208 = call i32 @tvb_captured_length(ptr noundef %207)
  call void @llvm.lifetime.end.p0(i64 8, ptr %21) #15
  call void @llvm.lifetime.end.p0(i64 1, ptr %18) #15
  call void @llvm.lifetime.end.p0(i64 1, ptr %17) #15
  call void @llvm.lifetime.end.p0(i64 8, ptr %16) #15
  call void @llvm.lifetime.end.p0(i64 4, ptr %15) #15
  call void @llvm.lifetime.end.p0(i64 4, ptr %14) #15
  call void @llvm.lifetime.end.p0(i64 4, ptr %13) #15
  call void @llvm.lifetime.end.p0(i64 4, ptr %12) #15
  call void @llvm.lifetime.end.p0(i64 4, ptr %11) #15
  call void @llvm.lifetime.end.p0(i64 4, ptr %10) #15
  call void @llvm.lifetime.end.p0(i64 4, ptr %9) #15
  ret i32 %208
}