; Function Attrs: null_pointer_is_valid sspstrong uwtable
define internal i32 @dissect_routing6_crh(ptr noundef %0, ptr noundef %1, ptr noundef %2, ptr noundef readonly captures(none) %3) #0 {
  %5 = getelementptr inbounds nuw i8, ptr %3, i64 2
  %6 = load i8, ptr %5, align 2
  %7 = icmp eq i8 %6, 5
  %8 = getelementptr inbounds nuw i8, ptr %3, i64 3
  %9 = load i8, ptr %8, align 1
  switch i8 %6, label %28 [
    i8 5, label %10
    i8 6, label %19
  ]

10:                                               ; preds = %4
  %11 = getelementptr inbounds nuw i8, ptr %3, i64 1
  %12 = load i8, ptr %11, align 1
  %13 = zext i8 %12 to i32
  %14 = shl nuw nsw i32 %13, 2
  %15 = or disjoint i32 %14, 2
  %16 = zext i8 %9 to i32
  %17 = icmp ult i8 %9, 3
  %18 = add nsw i32 %16, -2
  br i1 %17, label %.thread92.thread, label %29

19:                                               ; preds = %4
  %20 = getelementptr inbounds nuw i8, ptr %3, i64 1
  %21 = load i8, ptr %20, align 1
  %22 = zext i8 %21 to i32
  %23 = shl nuw nsw i32 %22, 1
  %24 = or disjoint i32 %23, 1
  %25 = zext i8 %9 to i32
  %26 = icmp ult i8 %9, 2
  %27 = add nsw i32 %25, -1
  br i1 %26, label %.thread92.thread105, label %29

28:                                               ; preds = %4
  tail call void (ptr, ...) @proto_report_dissector_bug(ptr noundef nonnull @.str.887, ptr noundef nonnull @.str.888, i32 noundef 1524) #20
  unreachable

29:                                               ; preds = %10, %19
  %.pre-phi = phi i32 [ %13, %10 ], [ %22, %19 ]
  %.075 = phi i32 [ 4, %10 ], [ 2, %19 ]
  %.074 = phi i32 [ %18, %10 ], [ %27, %19 ]
  %.073 = phi i32 [ 2, %10 ], [ 4, %19 ]
  %.072 = phi i32 [ %15, %10 ], [ %24, %19 ]
  %30 = tail call range(i32 1, 33) i32 @llvm.cttz.i32(i32 %.075, i1 true)
  %31 = lshr i32 %.074, %30
  %32 = add nsw i32 %.075, -1
  %33 = and i32 %.074, %32
  %.not77 = icmp ne i32 %33, 0
  %34 = zext i1 %.not77 to i32
  %spec.select79 = add nuw i32 %31, %34
  %35 = icmp sgt i32 %spec.select79, %.pre-phi
  br i1 %35, label %36, label %.thread92

36:                                               ; preds = %29
  %37 = getelementptr inbounds nuw i8, ptr %3, i64 8
  %38 = load ptr, ptr %37, align 8
  %39 = tail call ptr (ptr, ptr, ptr, ptr, ...) @expert_add_info_format(ptr noundef %1, ptr noundef %38, ptr noundef nonnull @ei_ipv6_routing_invalid_length, ptr noundef nonnull @.str.946, i32 noundef %.pre-phi)
  br label %.thread92

.thread92:                                        ; preds = %36, %29
  %.pre = zext i8 %9 to i32
  br i1 %7, label %.thread92.thread, label %.thread92.thread105

.thread92.thread:                                 ; preds = %.thread92, %10
  %.pre-phi114 = phi i32 [ %16, %10 ], [ %.pre, %.thread92 ]
  %.0729196104 = phi i32 [ %15, %10 ], [ %.072, %.thread92 ]
  %.0739097101 = phi i32 [ 2, %10 ], [ %.073, %.thread92 ]
  %40 = load i32, ptr @hf_ipv6_routing_crh16_current_sid, align 4
  %41 = mul nuw nsw i32 %.0739097101, %.pre-phi114
  %42 = tail call ptr @proto_tree_add_item(ptr noundef %2, i32 noundef %40, ptr noundef %0, i32 noundef %41, i32 noundef %.0739097101, i32 noundef 0)
  %.not.i = icmp eq ptr %42, null
  br i1 %.not.i, label %60, label %43

43:                                               ; preds = %.thread92.thread
  %44 = getelementptr inbounds nuw i8, ptr %42, i64 40
  %45 = load ptr, ptr %44, align 8
  %.not5.i = icmp eq ptr %45, null
  br i1 %.not5.i, label %60, label %46

46:                                               ; preds = %43
  %47 = getelementptr inbounds nuw i8, ptr %45, i64 28
  %48 = load i32, ptr %47, align 4
  %49 = or i32 %48, 2
  store i32 %49, ptr %47, align 4
  br label %60

.thread92.thread105:                              ; preds = %.thread92, %19
  %.pre-phi116 = phi i32 [ %25, %19 ], [ %.pre, %.thread92 ]
  %.0729196109 = phi i32 [ %24, %19 ], [ %.072, %.thread92 ]
  %.0739097108 = phi i32 [ 4, %19 ], [ %.073, %.thread92 ]
  %50 = load i32, ptr @hf_ipv6_routing_crh32_current_sid, align 4
  %51 = mul nuw nsw i32 %.0739097108, %.pre-phi116
  %52 = tail call ptr @proto_tree_add_item(ptr noundef %2, i32 noundef %50, ptr noundef %0, i32 noundef %51, i32 noundef %.0739097108, i32 noundef 0)
  %.not.i80 = icmp eq ptr %52, null
  br i1 %.not.i80, label %proto_item_set_generated.exit, label %53

53:                                               ; preds = %.thread92.thread105
  %54 = getelementptr inbounds nuw i8, ptr %52, i64 40
  %55 = load ptr, ptr %54, align 8
  %.not5.i81 = icmp eq ptr %55, null
  br i1 %.not5.i81, label %proto_item_set_generated.exit, label %56

56:                                               ; preds = %53
  %57 = getelementptr inbounds nuw i8, ptr %55, i64 28
  %58 = load i32, ptr %57, align 4
  %59 = or i32 %58, 2
  store i32 %59, ptr %57, align 4
  br label %proto_item_set_generated.exit

60:                                               ; preds = %46, %43, %.thread92.thread
  %61 = tail call zeroext i16 @tvb_get_uint16(ptr noundef %0, i32 noundef 0, i32 noundef 0)
  %62 = zext i16 %61 to i32
  br label %64

proto_item_set_generated.exit:                    ; preds = %.thread92.thread105, %53, %56
  %63 = tail call i32 @tvb_get_uint32(ptr noundef %0, i32 noundef 0, i32 noundef 0)
  br label %64

64:                                               ; preds = %proto_item_set_generated.exit, %60
  %.0729196103 = phi i32 [ %.0729196104, %60 ], [ %.0729196109, %proto_item_set_generated.exit ]
  %.0739097102 = phi i32 [ %.0739097101, %60 ], [ %.0739097108, %proto_item_set_generated.exit ]
  %65 = phi i32 [ %62, %60 ], [ %63, %proto_item_set_generated.exit ]
  %66 = tail call ptr @proto_tree_add_subtree(ptr noundef %2, ptr noundef %0, i32 noundef 0, i32 noundef -1, i32 noundef 0, ptr noundef null, ptr noundef nonnull @.str.947)
  %.not = icmp eq i32 %65, 0
  br i1 %.not, label %._crit_edge, label %.lr.ph

.lr.ph:                                           ; preds = %64
  br i1 %7, label %.lr.ph.split.us, label %.lr.ph.split

.lr.ph.split.us:                                  ; preds = %.lr.ph, %.lr.ph.split.us
  %.0112.us = phi i32 [ %72, %.lr.ph.split.us ], [ 0, %.lr.ph ]
  %.069111.us = phi i32 [ %69, %.lr.ph.split.us ], [ 0, %.lr.ph ]
  %.071110.us = phi i32 [ %71, %.lr.ph.split.us ], [ %65, %.lr.ph ]
  %67 = load i32, ptr @hf_ipv6_routing_crh16_segment_id, align 4
  %68 = tail call ptr (ptr, i32, ptr, i32, i32, i32, ptr, ...) @proto_tree_add_uint_format(ptr noundef %66, i32 noundef %67, ptr noundef %0, i32 noundef %.069111.us, i32 noundef %.0739097102, i32 noundef %.071110.us, ptr noundef nonnull @.str.948, i32 noundef %.0112.us, i32 noundef %.071110.us)
  %69 = add nuw nsw i32 %.069111.us, %.0739097102
  %70 = tail call zeroext i16 @tvb_get_uint16(ptr noundef %0, i32 noundef %69, i32 noundef 0)
  %71 = zext i16 %70 to i32
  %72 = add nuw nsw i32 %.0112.us, 1
  %73 = icmp ult i32 %72, %.0729196103
  %74 = icmp ne i16 %70, 0
  %75 = select i1 %73, i1 %74, i1 false
  br i1 %75, label %.lr.ph.split.us, label %._crit_edge, !llvm.loop !19

._crit_edge:                                      ; preds = %.lr.ph.split, %.lr.ph.split.us, %64
  %76 = tail call i32 @tvb_captured_length(ptr noundef %0)
  ret i32 %76

.lr.ph.split:                                     ; preds = %.lr.ph, %.lr.ph.split
  %.0112 = phi i32 [ %81, %.lr.ph.split ], [ 0, %.lr.ph ]
  %.069111 = phi i32 [ %79, %.lr.ph.split ], [ 0, %.lr.ph ]
  %.071110 = phi i32 [ %80, %.lr.ph.split ], [ %65, %.lr.ph ]
  %77 = load i32, ptr @hf_ipv6_routing_crh32_segment_id, align 4
  %78 = tail call ptr (ptr, i32, ptr, i32, i32, i32, ptr, ...) @proto_tree_add_uint_format(ptr noundef %66, i32 noundef %77, ptr noundef %0, i32 noundef %.069111, i32 noundef %.0739097102, i32 noundef %.071110, ptr noundef nonnull @.str.948, i32 noundef %.0112, i32 noundef %.071110)
  %79 = add nuw nsw i32 %.069111, %.0739097102
  %80 = tail call i32 @tvb_get_uint32(ptr noundef %0, i32 noundef %79, i32 noundef 0)
  %81 = add nuw nsw i32 %.0112, 1
  %82 = icmp ult i32 %81, %.0729196103
  %83 = icmp ne i32 %80, 0
  %84 = select i1 %82, i1 %83, i1 false
  br i1 %84, label %.lr.ph.split, label %._crit_edge, !llvm.loop !19
}